	.file	"factorn.c"
	.section	.rodata
.LC0:
	.string	"%d"
.LC1:
	.string	"Sum = %ld\n"
	.text
	.globl	main
	.type	main, @function
main:
.LFB0:
	.cfi_startproc
	pushl	%ebp
	.cfi_def_cfa_offset 8
	.cfi_offset 5, -8
	movl	%esp, %ebp
	.cfi_def_cfa_register 5
	andl	$-16, %esp
	subl	$32, %esp
	leal	24(%esp), %eax
	movl	%eax, 4(%esp)
	movl	$.LC0, (%esp)
	call	__isoc99_scanf
	movl	24(%esp), %eax
	movl	%eax, (%esp)
	call	factor
	movl	%eax, 28(%esp)
	movl	28(%esp), %eax
	movl	%eax, 4(%esp)
	movl	$.LC1, (%esp)
	call	printf
	movl	$0, %eax
	leave
	.cfi_restore 5
	.cfi_def_cfa 4, 4
	ret
	.cfi_endproc
.LFE0:
	.size	main, .-main
	.globl	factor
	.type	factor, @function
factor:
.LFB1:
	.cfi_startproc
	pushl	%ebp
	.cfi_def_cfa_offset 8
	.cfi_offset 5, -8
	movl	%esp, %ebp
	.cfi_def_cfa_register 5
	subl	$24, %esp
	cmpl	$1, 8(%ebp)
	jne	.L4
	movl	$1, %eax
	jmp	.L5
.L4:
	movl	8(%ebp), %eax
	subl	$1, %eax
	movl	%eax, (%esp)
	call	factor
	imull	8(%ebp), %eax
.L5:
	leave
	.cfi_restore 5
	.cfi_def_cfa 4, 4
	ret
	.cfi_endproc
.LFE1:
	.size	factor, .-factor
	.ident	"GCC: (Ubuntu 4.8.4-2ubuntu1~14.04) 4.8.4"
	.section	.note.GNU-stack,"",@progbits
