	.file	"sum2recur.c"
	.section	.rodata
.LC0:
	.string	"%d"
.LC1:
	.string	"Sum = %ld\n"
	.text
	.globl	main
	.type	main, @function
main:
.LFB0:
	.cfi_startproc
	pushl	%ebp
	.cfi_def_cfa_offset 8
	.cfi_offset 5, -8
	movl	%esp, %ebp
	.cfi_def_cfa_register 5
	andl	$-16, %esp
	subl	$32, %esp
	leal	24(%esp), %eax
	movl	%eax, 4(%esp)
	movl	$.LC0, (%esp)
	call	__isoc99_scanf
	movl	24(%esp), %eax
	movl	$10, 4(%esp)
	movl	%eax, (%esp)
	call	sum2recur
	movl	%eax, 28(%esp)
	movl	28(%esp), %eax
	movl	%eax, 4(%esp)
	movl	$.LC1, (%esp)
	call	printf
	movl	$0, %eax
	leave
	.cfi_restore 5
	.cfi_def_cfa 4, 4
	ret
	.cfi_endproc
.LFE0:
	.size	main, .-main
	.globl	sum2recur
	.type	sum2recur, @function
sum2recur:
.LFB1:
	.cfi_startproc
	pushl	%ebp
	.cfi_def_cfa_offset 8
	.cfi_offset 5, -8
	movl	%esp, %ebp
	.cfi_def_cfa_register 5
	subl	$24, %esp
	cmpl	$0, 8(%ebp)
	jns	.L4
	cmpl	$0, 12(%ebp)
	jns	.L4
	movl	$1, %eax
	jmp	.L5
.L4:
	movl	12(%ebp), %eax
	leal	-2(%eax), %edx
	movl	8(%ebp), %eax
	subl	$1, %eax
	movl	%edx, 4(%esp)
	movl	%eax, (%esp)
	call	sum2recur
	addl	$3, %eax
.L5:
	leave
	.cfi_restore 5
	.cfi_def_cfa 4, 4
	ret
	.cfi_endproc
.LFE1:
	.size	sum2recur, .-sum2recur
	.ident	"GCC: (Ubuntu 4.8.4-2ubuntu1~14.04) 4.8.4"
	.section	.note.GNU-stack,"",@progbits
